; Function Attrs: nounwind uwtable
define i32 @exr_get_storage(ptr noundef %0, i32 noundef %1, ptr noundef writeonly %2) local_unnamed_addr #0 {
  %.not = icmp eq ptr %0, null
  br i1 %.not, label %43, label %4

4:                                                ; preds = %3
  %5 = load i8, ptr %0, align 8, !tbaa !22
  %6 = icmp eq i8 %5, 1
  br i1 %6, label %7, label %10

7:                                                ; preds = %4
  %8 = getelementptr inbounds nuw i8, ptr %0, i64 504
  %9 = tail call i32 @pthread_mutex_lock(ptr noundef nonnull %8) #6
  br label %10

10:                                               ; preds = %7, %4
  %11 = icmp slt i32 %1, 0
  br i1 %11, label %._crit_edge, label %12

._crit_edge:                                      ; preds = %10
  %.pre = load i8, ptr %0, align 8, !tbaa !22
  br label %15

12:                                               ; preds = %10
  %13 = getelementptr inbounds nuw i8, ptr %0, i64 196
  %14 = load i32, ptr %13, align 4, !tbaa !23
  %.not24 = icmp slt i32 %1, %14
  %.pre26 = load i8, ptr %0, align 8, !tbaa !22
  br i1 %.not24, label %25, label %15

15:                                               ; preds = %._crit_edge, %12
  %16 = phi i8 [ %.pre, %._crit_edge ], [ %.pre26, %12 ]
  %17 = icmp eq i8 %16, 1
  br i1 %17, label %18, label %21

18:                                               ; preds = %15
  %19 = getelementptr inbounds nuw i8, ptr %0, i64 504
  %20 = tail call i32 @pthread_mutex_unlock(ptr noundef nonnull %19) #6
  br label %21

21:                                               ; preds = %18, %15
  %22 = getelementptr inbounds nuw i8, ptr %0, i64 72
  %23 = load ptr, ptr %22, align 8, !tbaa !25
  %24 = tail call i32 (ptr, i32, ptr, ...) %23(ptr noundef nonnull %0, i32 noundef 4, ptr noundef nonnull @.str, i32 noundef %1) #6
  br label %43

25:                                               ; preds = %12
  %26 = getelementptr inbounds nuw i8, ptr %0, i64 472
  %27 = load ptr, ptr %26, align 8, !tbaa !26
  %28 = zext nneg i32 %1 to i64
  %29 = getelementptr inbounds nuw ptr, ptr %27, i64 %28
  %30 = load ptr, ptr %29, align 8, !tbaa !27
  %31 = getelementptr inbounds nuw i8, ptr %30, i64 4
  %32 = load i32, ptr %31, align 4, !tbaa !28
  %33 = icmp eq i8 %.pre26, 1
  br i1 %33, label %34, label %37

34:                                               ; preds = %25
  %35 = getelementptr inbounds nuw i8, ptr %0, i64 504
  %36 = tail call i32 @pthread_mutex_unlock(ptr noundef nonnull %35) #6
  br label %37

37:                                               ; preds = %34, %25
  %.not25 = icmp eq ptr %2, null
  br i1 %.not25, label %38, label %42

38:                                               ; preds = %37
  %39 = getelementptr inbounds nuw i8, ptr %0, i64 56
  %40 = load ptr, ptr %39, align 8, !tbaa !3
  %41 = tail call i32 %40(ptr noundef nonnull %0, i32 noundef 3) #6
  br label %43

42:                                               ; preds = %37
  store i32 %32, ptr %2, align 4, !tbaa !24
  br label %43

43:                                               ; preds = %3, %42, %38, %21
  %.0 = phi i32 [ %24, %21 ], [ 0, %42 ], [ %41, %38 ], [ 2, %3 ]
  ret i32 %.0
}